target datalayout = "e-m:e-p270:32:32-p271:32:32-p272:64:64-i64:64-i128:128-f80:128-n8:16:32:64-S128"
target triple = "x86_64-pc-linux-gnu"

%struct.lua_TValue = type { %union.Value, i32 }
%union.Value = type { ptr }
%struct.lua_State = type { ptr, i8, i8, i8, ptr, ptr, ptr, ptr, ptr, ptr, ptr, ptr, ptr, i32, i32, i16, i16, i8, i8, i32, i32, ptr, %struct.lua_TValue, %struct.lua_TValue, ptr, ptr, ptr, i64 }
%struct.global_State = type { %struct.stringtable, ptr, ptr, i8, i8, i32, ptr, ptr, ptr, ptr, ptr, ptr, %struct.Mbuffer, i64, i64, i64, i64, i32, i32, ptr, %struct.lua_TValue, ptr, %struct.UpVal, [9 x ptr], [17 x ptr] }
%struct.stringtable = type { ptr, i32, i32 }
%struct.Mbuffer = type { ptr, i64, i64 }
%struct.UpVal = type { ptr, i8, i8, ptr, %union.anon }
%union.anon = type { %struct.lua_TValue }

; Function Attrs: nounwind uwtable
define dso_local ptr @lua_newthread(ptr noundef %0) #0 {
  %2 = alloca ptr, align 8
  %3 = alloca ptr, align 8
  %4 = alloca ptr, align 8
  store ptr %0, ptr %2, align 8, !tbaa !4
  call void @llvm.lifetime.start.p0(i64 8, ptr %3) #6
  %5 = load ptr, ptr %2, align 8, !tbaa !4
  %6 = getelementptr inbounds nuw %struct.lua_State, ptr %5, i32 0, i32 6
  %7 = load ptr, ptr %6, align 8, !tbaa !35
  %8 = getelementptr inbounds nuw %struct.global_State, ptr %7, i32 0, i32 14
  %9 = load i64, ptr %8, align 8, !tbaa !43
  %10 = load ptr, ptr %2, align 8, !tbaa !4
  %11 = getelementptr inbounds nuw %struct.lua_State, ptr %10, i32 0, i32 6
  %12 = load ptr, ptr %11, align 8, !tbaa !35
  %13 = getelementptr inbounds nuw %struct.global_State, ptr %12, i32 0, i32 13
  %14 = load i64, ptr %13, align 8, !tbaa !44
  %15 = icmp uge i64 %9, %14
  br i1 %15, label %16, label %18

16:                                               ; preds = %1
  %17 = load ptr, ptr %2, align 8, !tbaa !4
  call void @luaC_step(ptr noundef %17)
  br label %18

18:                                               ; preds = %16, %1
  %19 = load ptr, ptr %2, align 8, !tbaa !4
  %20 = call ptr @luaE_newthread(ptr noundef %19)
  store ptr %20, ptr %3, align 8, !tbaa !4
  call void @llvm.lifetime.start.p0(i64 8, ptr %4) #6
  %21 = load ptr, ptr %2, align 8, !tbaa !4
  %22 = getelementptr inbounds nuw %struct.lua_State, ptr %21, i32 0, i32 4
  %23 = load ptr, ptr %22, align 8, !tbaa !11
  store ptr %23, ptr %4, align 8, !tbaa !9
  %24 = load ptr, ptr %3, align 8, !tbaa !4
  %25 = load ptr, ptr %4, align 8, !tbaa !9
  %26 = getelementptr inbounds nuw %struct.lua_TValue, ptr %25, i32 0, i32 0
  store ptr %24, ptr %26, align 8, !tbaa !23
  %27 = load ptr, ptr %4, align 8, !tbaa !9
  %28 = getelementptr inbounds nuw %struct.lua_TValue, ptr %27, i32 0, i32 1
  store i32 8, ptr %28, align 8, !tbaa !24
  call void @llvm.lifetime.end.p0(i64 8, ptr %4) #6
  %29 = load ptr, ptr %2, align 8, !tbaa !4
  %30 = getelementptr inbounds nuw %struct.lua_State, ptr %29, i32 0, i32 4
  %31 = load ptr, ptr %30, align 8, !tbaa !11
  %32 = getelementptr inbounds nuw %struct.lua_TValue, ptr %31, i32 1
  store ptr %32, ptr %30, align 8, !tbaa !11
  %33 = load ptr, ptr %3, align 8, !tbaa !4
  call void @llvm.lifetime.end.p0(i64 8, ptr %3) #6
  ret ptr %33
}