; Function Attrs: nounwind uwtable
define dso_local ptr @lua_newthread(ptr noundef %0) local_unnamed_addr #2 {
  %2 = getelementptr inbounds nuw i8, ptr %0, i64 32
  %3 = load ptr, ptr %2, align 8, !tbaa !29
  %4 = getelementptr inbounds nuw i8, ptr %3, i64 120
  %5 = load i64, ptr %4, align 8, !tbaa !38
  %6 = getelementptr inbounds nuw i8, ptr %3, i64 112
  %7 = load i64, ptr %6, align 8, !tbaa !39
  %.not = icmp ult i64 %5, %7
  br i1 %.not, label %9, label %8

8:                                                ; preds = %1
  tail call void @luaC_step(ptr noundef nonnull %0) #14
  br label %9

9:                                                ; preds = %8, %1
  %10 = tail call ptr @luaE_newthread(ptr noundef nonnull %0) #14
  %11 = getelementptr inbounds nuw i8, ptr %0, i64 16
  %12 = load ptr, ptr %11, align 8, !tbaa !4
  store ptr %10, ptr %12, align 8, !tbaa !19
  %13 = getelementptr inbounds nuw i8, ptr %12, i64 8
  store i32 8, ptr %13, align 8, !tbaa !20
  %14 = load ptr, ptr %11, align 8, !tbaa !4
  %15 = getelementptr inbounds nuw i8, ptr %14, i64 16
  store ptr %15, ptr %11, align 8, !tbaa !4
  ret ptr %10
}